; Function Attrs: nounwind uwtable
define ptr @l___private_Lean_Data_Lsp_Utf16_0__Lean_FileMap_lineStartPos___boxed(ptr noundef %0, ptr noundef %1) local_unnamed_addr #1 {
  %3 = getelementptr inbounds nuw i8, ptr %0, i64 16
  %4 = load ptr, ptr %3, align 8, !tbaa !14
  %5 = getelementptr i8, ptr %4, i64 8
  %.val.i = load i64, ptr %5, align 8, !tbaa !12
  %6 = shl i64 %.val.i, 1
  %7 = or disjoint i64 %6, 1
  %8 = inttoptr i64 %7 to ptr
  %9 = ptrtoint ptr %1 to i64
  %10 = and i64 %9, 1
  %.not.i8 = icmp eq i64 %10, 0
  br i1 %.not.i8, label %lean_dec.exit.i, label %11, !prof !11

11:                                               ; preds = %2
  %12 = icmp ult ptr %1, %8
  br i1 %12, label %20, label %14

lean_dec.exit.i:                                  ; preds = %2
  %13 = tail call zeroext i1 @lean_nat_big_lt(ptr noundef %1, ptr noundef nonnull %8) #4
  br i1 %13, label %20, label %14

14:                                               ; preds = %lean_dec.exit.i, %11
  %15 = tail call zeroext i8 @l_Array_isEmpty___rarg(ptr noundef nonnull %4) #4
  %16 = icmp eq i8 %15, 0
  br i1 %16, label %17, label %l___private_Lean_Data_Lsp_Utf16_0__Lean_FileMap_lineStartPos.exit

17:                                               ; preds = %14
  %18 = load ptr, ptr @l_instInhabitedPos, align 8, !tbaa !14
  %19 = tail call ptr @l_Array_back_x21___rarg(ptr noundef %18, ptr noundef nonnull %4) #4
  br label %l___private_Lean_Data_Lsp_Utf16_0__Lean_FileMap_lineStartPos.exit

20:                                               ; preds = %lean_dec.exit.i, %11
  %21 = lshr i64 %9, 1
  %22 = getelementptr inbounds nuw i8, ptr %4, i64 24
  %23 = getelementptr inbounds nuw [0 x ptr], ptr %22, i64 0, i64 %21
  %24 = load ptr, ptr %23, align 8, !tbaa !14
  %25 = ptrtoint ptr %24 to i64
  %26 = and i64 %25, 1
  %.not.i.i.i = icmp eq i64 %26, 0
  br i1 %.not.i.i.i, label %27, label %l___private_Lean_Data_Lsp_Utf16_0__Lean_FileMap_lineStartPos.exit

27:                                               ; preds = %20
  %.val.i.i.i.i = load i32, ptr %24, align 4, !tbaa !4
  %28 = icmp sgt i32 %.val.i.i.i.i, 0
  br i1 %28, label %29, label %31, !prof !9

29:                                               ; preds = %27
  %30 = add nuw i32 %.val.i.i.i.i, 1
  store i32 %30, ptr %24, align 4, !tbaa !4
  br label %l___private_Lean_Data_Lsp_Utf16_0__Lean_FileMap_lineStartPos.exit

31:                                               ; preds = %27
  %.not.i.i.i.i = icmp eq i32 %.val.i.i.i.i, 0
  br i1 %.not.i.i.i.i, label %l___private_Lean_Data_Lsp_Utf16_0__Lean_FileMap_lineStartPos.exit, label %32

32:                                               ; preds = %31
  tail call void @lean_inc_ref_cold(ptr noundef nonnull %24) #4
  br label %l___private_Lean_Data_Lsp_Utf16_0__Lean_FileMap_lineStartPos.exit

l___private_Lean_Data_Lsp_Utf16_0__Lean_FileMap_lineStartPos.exit: ; preds = %14, %17, %20, %29, %31, %32
  %.1.i = phi ptr [ %19, %17 ], [ inttoptr (i64 1 to ptr), %14 ], [ %24, %20 ], [ %24, %29 ], [ %24, %31 ], [ %24, %32 ]
  br i1 %.not.i8, label %33, label %lean_dec.exit5

33:                                               ; preds = %l___private_Lean_Data_Lsp_Utf16_0__Lean_FileMap_lineStartPos.exit
  %34 = load i32, ptr %1, align 4, !tbaa !4
  %35 = icmp sgt i32 %34, 1
  br i1 %35, label %36, label %38, !prof !9

36:                                               ; preds = %33
  %37 = add nsw i32 %34, -1
  store i32 %37, ptr %1, align 4, !tbaa !4
  br label %lean_dec.exit5

38:                                               ; preds = %33
  %.not.i = icmp eq i32 %34, 0
  br i1 %.not.i, label %lean_dec.exit5, label %39

39:                                               ; preds = %38
  tail call void @lean_dec_ref_cold(ptr noundef nonnull %1) #4
  br label %lean_dec.exit5

lean_dec.exit5:                                   ; preds = %39, %38, %36, %l___private_Lean_Data_Lsp_Utf16_0__Lean_FileMap_lineStartPos.exit
  %40 = ptrtoint ptr %0 to i64
  %41 = and i64 %40, 1
  %.not9 = icmp eq i64 %41, 0
  br i1 %.not9, label %42, label %lean_dec.exit

42:                                               ; preds = %lean_dec.exit5
  %43 = load i32, ptr %0, align 4, !tbaa !4
  %44 = icmp sgt i32 %43, 1
  br i1 %44, label %45, label %47, !prof !9

45:                                               ; preds = %42
  %46 = add nsw i32 %43, -1
  store i32 %46, ptr %0, align 4, !tbaa !4
  br label %lean_dec.exit

47:                                               ; preds = %42
  %.not.i6 = icmp eq i32 %43, 0
  br i1 %.not.i6, label %lean_dec.exit, label %48

48:                                               ; preds = %47
  tail call void @lean_dec_ref_cold(ptr noundef nonnull %0) #4
  br label %lean_dec.exit

lean_dec.exit:                                    ; preds = %48, %47, %45, %lean_dec.exit5
  ret ptr %.1.i
}